(dp0
I1
S'Q. What did the penis say to the condom? A:"Cover me. I\'m going in."'
p1
sI2
S"Q: Why doesn't Santa have any children? A: He only comes once a year -- and when he does, it's down a chimney."
p2
sI3
S"Q: Why can't a blonde count to 70? A: Because 69 is a bit of a mouthful."
p3
sI4
S'Q: What is the definition of disgusting? A: Buying condoms from a secondhand shop.'
p4
sI5
S"Q: Why did the man put condoms on his ears during sex? A: He didn't want to get hearing aids."
p5
sI6
S'Q: What should you do if you come across an elephant? A: Apologize and wipe it off.'
p6
sI7
S"Q: What's the best time to fake an orgasm? A: When a Rottweiler is humping your leg."
p7
sI8
S'A woman wearing a strapless gown and sporting a necklace with an airplane on it spotted a young man staring at her. She asked him, "Were you admiring my airplane?" He replied, "No, I was admiring the landing field."'
p8
sI9
S'Q: What do you call a guy with a blue penis? A: A tight-fisted wanker.'
p9
sI10
S"Q: Why do elephants have four feet? A: In the animal kingdom, six inches just doesn't cut it."
p10
s.